; Function Attrs: nofree norecurse nosync nounwind memory(argmem: write) uwtable
define internal noundef i32 @zueci_u_cp1256(i32 noundef %0, ptr nocapture noundef writeonly %1) #1 {
  %3 = icmp ult i32 %0, 128
  br i1 %3, label %4, label %6

4:                                                ; preds = %2
  %5 = trunc nuw nsw i32 %0 to i8
  br label %.loopexit.sink.split.i

6:                                                ; preds = %2
  %7 = add i32 %0, -160
  %or.cond.i = icmp ult i32 %7, 96
  br i1 %or.cond.i, label %8, label %.lr.ph.i.preheader

.lr.ph.i.preheader:                               ; preds = %8, %6
  br label %.lr.ph.i

8:                                                ; preds = %6
  %9 = lshr i32 %7, 4
  %10 = zext nneg i32 %9 to i64
  %11 = getelementptr inbounds i16, ptr @zueci_cp1256_s, i64 %10
  %12 = load i16, ptr %11, align 2
  %13 = zext i16 %12 to i32
  %14 = and i32 %0, 15
  %15 = shl nuw nsw i32 1, %14
  %16 = and i32 %15, %13
  %.not.i = icmp eq i32 %16, 0
  br i1 %.not.i, label %.lr.ph.i.preheader, label %17

17:                                               ; preds = %8
  %18 = trunc nuw i32 %0 to i8
  br label %.loopexit.sink.split.i

.lr.ph.i:                                         ; preds = %.lr.ph.i.preheader, %35
  %.02736.i = phi i32 [ %.1.i, %35 ], [ 84, %.lr.ph.i.preheader ]
  %.02835.i = phi i32 [ %.129.i, %35 ], [ 0, %.lr.ph.i.preheader ]
  %19 = add nsw i32 %.02835.i, %.02736.i
  %20 = ashr i32 %19, 1
  %21 = sext i32 %20 to i64
  %22 = getelementptr inbounds i16, ptr @zueci_cp1256_u_u, i64 %21
  %23 = load i16, ptr %22, align 2
  %24 = zext i16 %23 to i32
  %25 = icmp ult i32 %24, %0
  br i1 %25, label %26, label %28

26:                                               ; preds = %.lr.ph.i
  %27 = add nsw i32 %20, 1
  br label %35

28:                                               ; preds = %.lr.ph.i
  %29 = icmp ugt i32 %24, %0
  br i1 %29, label %30, label %32

30:                                               ; preds = %28
  %31 = add nsw i32 %20, -1
  br label %35

32:                                               ; preds = %28
  %33 = getelementptr inbounds i8, ptr @zueci_cp1256_u_sb, i64 %21
  %34 = load i8, ptr %33, align 1
  br label %.loopexit.sink.split.i

35:                                               ; preds = %30, %26
  %.129.i = phi i32 [ %27, %26 ], [ %.02835.i, %30 ]
  %.1.i = phi i32 [ %.02736.i, %26 ], [ %31, %30 ]
  %.not33.i = icmp sgt i32 %.129.i, %.1.i
  br i1 %.not33.i, label %zueci_u_cp125x.exit, label %.lr.ph.i, !llvm.loop !11

.loopexit.sink.split.i:                           ; preds = %32, %17, %4
  %.sink.i = phi i8 [ %34, %32 ], [ %18, %17 ], [ %5, %4 ]
  store i8 %.sink.i, ptr %1, align 1
  br label %zueci_u_cp125x.exit

zueci_u_cp125x.exit:                              ; preds = %35, %.loopexit.sink.split.i
  %.0.i = phi i32 [ 1, %.loopexit.sink.split.i ], [ 0, %35 ]
  ret i32 %.0.i
}